; Function Attrs: mustprogress nounwind uwtable
define hidden noundef i64 @_ZN8ZBarrier39blocking_load_barrier_on_weak_slow_pathEPV8zpointer8zaddress(ptr nocapture noundef readnone %0, i64 noundef %1) local_unnamed_addr #0 align 2 {
  %3 = icmp eq i64 %1, 0
  br i1 %3, label %25, label %4

4:                                                ; preds = %2
  %5 = load ptr, ptr @_ZN5ZHeap5_heapE, align 8
  %6 = load i64, ptr @ZAddressOffsetMask, align 8
  %7 = and i64 %6, %1
  %8 = lshr i64 %7, 21
  %9 = getelementptr inbounds i8, ptr %5, i64 624
  %10 = load ptr, ptr %9, align 8
  %11 = getelementptr inbounds ptr, ptr %10, i64 %8
  %12 = load volatile ptr, ptr %11, align 8
  %13 = getelementptr inbounds i8, ptr %12, i64 1
  %14 = load i8, ptr %13, align 1
  %.not = icmp eq i8 %14, 0
  br i1 %.not, label %18, label %15

15:                                               ; preds = %4
  %16 = load volatile ptr, ptr %11, align 8
  %17 = tail call noundef zeroext i1 @_ZNK5ZPage23is_object_strongly_liveE8zaddress(ptr noundef nonnull align 8 dereferenceable(192) %16, i64 noundef %1)
  br i1 %17, label %_ZL16keep_alive_young8zaddress.exit, label %25

18:                                               ; preds = %4
  %19 = load ptr, ptr @_ZN11ZGeneration6_youngE, align 8
  %20 = getelementptr inbounds i8, ptr %19, i64 3216
  %21 = load i32, ptr %20, align 16
  %22 = icmp eq i32 %21, 0
  br i1 %22, label %23, label %_ZL16keep_alive_young8zaddress.exit

23:                                               ; preds = %18
  %24 = getelementptr inbounds i8, ptr %19, i64 256
  tail call void @_ZN5ZMark11mark_objectILb1ELb0ELb1ELb0EEEv8zaddress(ptr noundef nonnull align 64 dereferenceable(2652) %24, i64 noundef %1)
  br label %_ZL16keep_alive_young8zaddress.exit

_ZL16keep_alive_young8zaddress.exit:              ; preds = %23, %18, %15
  br label %25

25:                                               ; preds = %15, %2, %_ZL16keep_alive_young8zaddress.exit
  %.0 = phi i64 [ %1, %_ZL16keep_alive_young8zaddress.exit ], [ 0, %2 ], [ 0, %15 ]
  ret i64 %.0
}